; Function Attrs: mustprogress uwtable
define noundef zeroext i1 @_ZN32pxrInternal_v0_24__pxrReserved__13UsdReferences12AddReferenceERKNSt7__cxx1112basic_stringIcSt11char_traitsIcESaIcEEERKNS_7SdfPathERKNS_14SdfLayerOffsetENS_15UsdListPositionE(ptr noundef nonnull align 8 dereferenceable(32) %0, ptr noundef nonnull align 8 dereferenceable(32) %1, ptr noundef nonnull align 4 dereferenceable(8) %2, ptr noundef nonnull align 8 dereferenceable(16) %3, i32 noundef %4) local_unnamed_addr #0 align 2 personality ptr @__gxx_personality_v0 {
  %6 = alloca %"class.pxrInternal_v0_24__pxrReserved__::SdfReference", align 8
  %7 = alloca %"class.pxrInternal_v0_24__pxrReserved__::VtDictionary", align 8
  store ptr null, ptr %7, align 8
  invoke void @_ZN32pxrInternal_v0_24__pxrReserved__12SdfReferenceC1ERKNSt7__cxx1112basic_stringIcSt11char_traitsIcESaIcEEERKNS_7SdfPathERKNS_14SdfLayerOffsetERKNS_12VtDictionaryE(ptr noundef nonnull align 8 dereferenceable(64) %6, ptr noundef nonnull align 8 dereferenceable(32) %1, ptr noundef nonnull align 4 dereferenceable(8) %2, ptr noundef nonnull align 8 dereferenceable(16) %3, ptr noundef nonnull align 8 dereferenceable(8) %7)
          to label %8 unwind label %17

8:                                                ; preds = %5
  %9 = load ptr, ptr %7, align 8
  %.not.i.i = icmp eq ptr %9, null
  br i1 %.not.i.i, label %_ZN32pxrInternal_v0_24__pxrReserved__12VtDictionaryD2Ev.exit, label %10

10:                                               ; preds = %8
  %11 = getelementptr inbounds i8, ptr %9, i64 16
  %12 = load ptr, ptr %11, align 8
  invoke void @_ZNSt8_Rb_treeINSt7__cxx1112basic_stringIcSt11char_traitsIcESaIcEEESt4pairIKS5_N32pxrInternal_v0_24__pxrReserved__7VtValueEESt10_Select1stISA_ESt4lessIvESaISA_EE8_M_eraseEPSt13_Rb_tree_nodeISA_E(ptr noundef nonnull align 8 dereferenceable(48) %9, ptr noundef %12)
          to label %_ZNKSt14default_deleteISt3mapINSt7__cxx1112basic_stringIcSt11char_traitsIcESaIcEEEN32pxrInternal_v0_24__pxrReserved__7VtValueESt4lessIvESaISt4pairIKS6_S8_EEEEclEPSF_.exit.i.i unwind label %13

13:                                               ; preds = %10
  %14 = landingpad { ptr, i32 }
          catch ptr null
  %15 = extractvalue { ptr, i32 } %14, 0
  call void @__clang_call_terminate(ptr %15) #17
  unreachable

_ZNKSt14default_deleteISt3mapINSt7__cxx1112basic_stringIcSt11char_traitsIcESaIcEEEN32pxrInternal_v0_24__pxrReserved__7VtValueESt4lessIvESaISt4pairIKS6_S8_EEEEclEPSF_.exit.i.i: ; preds = %10
  call void @_ZdlPvm(ptr noundef nonnull %9, i64 noundef 48) #18
  br label %_ZN32pxrInternal_v0_24__pxrReserved__12VtDictionaryD2Ev.exit

_ZN32pxrInternal_v0_24__pxrReserved__12VtDictionaryD2Ev.exit: ; preds = %8, %_ZNKSt14default_deleteISt3mapINSt7__cxx1112basic_stringIcSt11char_traitsIcESaIcEEEN32pxrInternal_v0_24__pxrReserved__7VtValueESt4lessIvESaISt4pairIKS6_S8_EEEEclEPSF_.exit.i.i
  store ptr null, ptr %7, align 8
  %16 = invoke noundef zeroext i1 @_ZN32pxrInternal_v0_24__pxrReserved__16Usd_ListEditImplINS_13UsdReferencesENS_18SdfListEditorProxyINS_22SdfReferenceTypePolicyEEEE3AddERKS1_RKNS_12SdfReferenceENS_15UsdListPositionE(ptr noundef nonnull align 8 dereferenceable(32) %0, ptr noundef nonnull align 8 dereferenceable(64) %6, i32 noundef %4)
          to label %_ZN32pxrInternal_v0_24__pxrReserved__13UsdReferences12AddReferenceERKNS_12SdfReferenceENS_15UsdListPositionE.exit unwind label %19

_ZN32pxrInternal_v0_24__pxrReserved__13UsdReferences12AddReferenceERKNS_12SdfReferenceENS_15UsdListPositionE.exit: ; preds = %_ZN32pxrInternal_v0_24__pxrReserved__12VtDictionaryD2Ev.exit
  call void @_ZN32pxrInternal_v0_24__pxrReserved__12SdfReferenceD2Ev(ptr noundef nonnull align 8 dereferenceable(64) %6) #15
  ret i1 %16

17:                                               ; preds = %5
  %18 = landingpad { ptr, i32 }
          cleanup
  call void @_ZN32pxrInternal_v0_24__pxrReserved__12VtDictionaryD2Ev(ptr noundef nonnull align 8 dereferenceable(8) %7) #15
  br label %21

19:                                               ; preds = %_ZN32pxrInternal_v0_24__pxrReserved__12VtDictionaryD2Ev.exit
  %20 = landingpad { ptr, i32 }
          cleanup
  call void @_ZN32pxrInternal_v0_24__pxrReserved__12SdfReferenceD2Ev(ptr noundef nonnull align 8 dereferenceable(64) %6) #15
  br label %21

21:                                               ; preds = %19, %17
  %.pn = phi { ptr, i32 } [ %20, %19 ], [ %18, %17 ]
  resume { ptr, i32 } %.pn
}